; ModuleID = '7/209.c'
source_filename = "7/209.c"
target datalayout = "e-m:e-p270:32:32-p271:32:32-p272:64:64-i64:64-f80:128-n8:16:32:64-S128"
target triple = "x86_64-pc-linux-gnu"

@.str = private unnamed_addr constant [3 x i8] c"%s\00", align 1
@.str.1 = private unnamed_addr constant [8 x i8] c"%s%s%s\0A\00", align 1

; Function Attrs: noinline nounwind uwtable
define dso_local i32 @main() #0 {
  %1 = alloca i32, align 4
  %2 = alloca [256 x i8], align 16
  %3 = alloca [256 x i8], align 16
  %4 = alloca [256 x i8], align 16
  %5 = alloca i8*, align 8
  %6 = alloca i8*, align 8
  %7 = alloca i8*, align 8
  %8 = alloca i8*, align 8
  %9 = alloca i32, align 4
  store i32 0, i32* %1, align 4
  %10 = getelementptr inbounds [256 x i8], [256 x i8]* %2, i64 0, i64 0
  %11 = call i32 (i8*, ...) bitcast (i32 (...)* @gets to i32 (i8*, ...)*)(i8* %10)
  %12 = getelementptr inbounds [256 x i8], [256 x i8]* %2, i64 0, i64 0
  store i8* %12, i8** %8, align 8
  %13 = getelementptr inbounds [256 x i8], [256 x i8]* %3, i64 0, i64 0
  %14 = call i32 (i8*, ...) bitcast (i32 (...)* @gets to i32 (i8*, ...)*)(i8* %13)
  %15 = getelementptr inbounds [256 x i8], [256 x i8]* %4, i64 0, i64 0
  %16 = call i32 (i8*, ...) bitcast (i32 (...)* @gets to i32 (i8*, ...)*)(i8* %15)
  %17 = getelementptr inbounds [256 x i8], [256 x i8]* %2, i64 0, i64 0
  %18 = getelementptr inbounds [256 x i8], [256 x i8]* %3, i64 0, i64 0
  %19 = call i8* @strstr(i8* %17, i8* %18) #4
  store i8* %19, i8** %5, align 8
  %20 = load i8*, i8** %5, align 8
  %21 = icmp ne i8* %20, null
  br i1 %21, label %25, label %22

22:                                               ; preds = %0
  %23 = load i8*, i8** %8, align 8
  %24 = call i32 (i8*, ...) @printf(i8* getelementptr inbounds ([3 x i8], [3 x i8]* @.str, i64 0, i64 0), i8* %23)
  call void @exit(i32 0) #5
  unreachable

25:                                               ; preds = %0
  %26 = getelementptr inbounds [256 x i8], [256 x i8]* %2, i64 0, i64 0
  store i8* %26, i8** %7, align 8
  %27 = getelementptr inbounds [256 x i8], [256 x i8]* %2, i64 0, i64 0
  %28 = call i64 @strlen(i8* %27) #4
  %29 = load i8*, i8** %5, align 8
  %30 = call i64 @strlen(i8* %29) #4
  %31 = sub i64 %28, %30
  %32 = trunc i64 %31 to i32
  store i32 %32, i32* %9, align 4
  %33 = load i8*, i8** %7, align 8
  %34 = load i32, i32* %9, align 4
  %35 = sext i32 %34 to i64
  %36 = getelementptr inbounds i8, i8* %33, i64 %35
  store i8 0, i8* %36, align 1
  %37 = getelementptr inbounds [256 x i8], [256 x i8]* %2, i64 0, i64 0
  %38 = getelementptr inbounds [256 x i8], [256 x i8]* %2, i64 0, i64 0
  %39 = call i64 @strlen(i8* %38) #4
  %40 = load i8*, i8** %5, align 8
  %41 = call i64 @strlen(i8* %40) #4
  %42 = getelementptr inbounds [256 x i8], [256 x i8]* %3, i64 0, i64 0
  %43 = call i64 @strlen(i8* %42) #4
  %44 = sub i64 %41, %43
  %45 = sub i64 %39, %44
  %46 = getelementptr inbounds i8, i8* %37, i64 %45
  store i8* %46, i8** %6, align 8
  %47 = load i8*, i8** %7, align 8
  %48 = getelementptr inbounds [256 x i8], [256 x i8]* %4, i64 0, i64 0
  %49 = load i8*, i8** %6, align 8
  %50 = call i32 (i8*, ...) @printf(i8* getelementptr inbounds ([8 x i8], [8 x i8]* @.str.1, i64 0, i64 0), i8* %47, i8* %48, i8* %49)
  ret i32 0
}

declare dso_local i32 @gets(...) #1

; Function Attrs: nounwind readonly
declare dso_local i8* @strstr(i8*, i8*) #2

declare dso_local i32 @printf(i8*, ...) #1

; Function Attrs: noreturn nounwind
declare dso_local void @exit(i32) #3

; Function Attrs: nounwind readonly
declare dso_local i64 @strlen(i8*) #2


!llvm.module.flags = !{!0}
!llvm.ident = !{!1}

!0 = !{i32 1, !"wchar_size", i32 4}
!1 = !{!"clang version 10.0.0-4ubuntu1 "}
